target datalayout = "e-m:e-p270:32:32-p271:32:32-p272:64:64-i64:64-i128:128-f80:128-n8:16:32:64-S128"
target triple = "x86_64-pc-linux-gnu"

@_ZN12_GLOBAL__N_114gMinCorrectionE = internal global i32 0, align 4
@_ZL15kPersianNumDays = internal constant [12 x i16] [i16 0, i16 31, i16 62, i16 93, i16 124, i16 155, i16 186, i16 216, i16 246, i16 276, i16 306, i16 336], align 16

; Function Attrs: mustprogress uwtable
define internal noundef i64 @_ZN6icu_77L17firstJulianOfYearEl(i64 noundef %0) #1 {
  %2 = alloca i64, align 8
  %3 = alloca i64, align 8
  store i64 %0, ptr %2, align 8, !tbaa !19
  call void @llvm.lifetime.start.p0(i64 8, ptr %3) #9
  %4 = load i64, ptr %2, align 8, !tbaa !19
  %5 = sub nsw i64 %4, 1
  %6 = mul nsw i64 365, %5
  %7 = load i64, ptr %2, align 8, !tbaa !19
  %8 = mul nsw i64 8, %7
  %9 = add nsw i64 %8, 21
  %10 = trunc i64 %9 to i32
  %11 = call noundef i32 @_ZN6icu_779ClockMath11floorDivideEii(i32 noundef %10, i32 noundef 33)
  %12 = sext i32 %11 to i64
  %13 = add nsw i64 %6, %12
  store i64 %13, ptr %3, align 8, !tbaa !19
  %14 = load i64, ptr %2, align 8, !tbaa !19
  %15 = load i32, ptr @_ZN12_GLOBAL__N_114gMinCorrectionE, align 4, !tbaa !17
  %16 = sext i32 %15 to i64
  %17 = icmp sgt i64 %14, %16
  br i1 %17, label %18, label %28

18:                                               ; preds = %1
  %19 = call noundef ptr @_ZN12_GLOBAL__N_117getLeapCorrectionEv()
  %20 = load i64, ptr %2, align 8, !tbaa !19
  %21 = sub nsw i64 %20, 1
  %22 = trunc i64 %21 to i32
  %23 = call noundef signext i8 @_ZNK6icu_7710UnicodeSet8containsEi(ptr noundef nonnull align 8 dereferenceable(200) %19, i32 noundef %22)
  %24 = icmp ne i8 %23, 0
  br i1 %24, label %25, label %28

25:                                               ; preds = %18
  %26 = load i64, ptr %3, align 8, !tbaa !19
  %27 = add nsw i64 %26, -1
  store i64 %27, ptr %3, align 8, !tbaa !19
  br label %28

28:                                               ; preds = %25, %18, %1
  %29 = load i64, ptr %3, align 8, !tbaa !19
  call void @llvm.lifetime.end.p0(i64 8, ptr %3) #9
  ret i64 %29
}

; Function Attrs: inlinehint mustprogress nounwind uwtable
define internal noundef signext i8 @_ZL9U_FAILURE10UErrorCode(i32 noundef %0) #5 {
  %2 = alloca i32, align 4
  store i32 %0, ptr %2, align 4, !tbaa !28
  %3 = load i32, ptr %2, align 4, !tbaa !28
  %4 = icmp sgt i32 %3, 0
  %5 = zext i1 %4 to i8
  ret i8 %5
}

; Function Attrs: mustprogress uwtable
define noundef i64 @_ZNK6icu_7715PersianCalendar23handleComputeMonthStartEiiaR10UErrorCode(ptr noundef nonnull align 8 dereferenceable(192) %0, i32 noundef %1, i32 noundef %2, i8 noundef signext %3, ptr noundef nonnull align 4 dereferenceable(4) %4) unnamed_addr #1 align 2 {
  %6 = alloca i64, align 8
  %7 = alloca ptr, align 8
  %8 = alloca i32, align 4
  %9 = alloca i32, align 4
  %10 = alloca i8, align 1
  %11 = alloca ptr, align 8
  %12 = alloca i64, align 8
  store ptr %0, ptr %7, align 8, !tbaa !3
  store i32 %1, ptr %8, align 4, !tbaa !17
  store i32 %2, ptr %9, align 4, !tbaa !17
  store i8 %3, ptr %10, align 1, !tbaa !27
  store ptr %4, ptr %11, align 8, !tbaa !10
  %13 = load ptr, ptr %11, align 8, !tbaa !10
  %14 = load i32, ptr %13, align 4, !tbaa !28
  %15 = call noundef signext i8 @_ZL9U_FAILURE10UErrorCode(i32 noundef %14)
  %16 = icmp ne i8 %15, 0
  br i1 %16, label %17, label %18

17:                                               ; preds = %5
  store i64 0, ptr %6, align 8
  br label %50

18:                                               ; preds = %5
  %19 = load i32, ptr %9, align 4, !tbaa !17
  %20 = icmp slt i32 %19, 0
  br i1 %20, label %24, label %21

21:                                               ; preds = %18
  %22 = load i32, ptr %9, align 4, !tbaa !17
  %23 = icmp sgt i32 %22, 11
  br i1 %23, label %24, label %33

24:                                               ; preds = %21, %18
  %25 = load i32, ptr %8, align 4, !tbaa !17
  %26 = load i32, ptr %9, align 4, !tbaa !17
  %27 = call noundef i32 @_ZN6icu_779ClockMath11floorDivideEiiPi(i32 noundef %26, i32 noundef 12, ptr noundef %9)
  %28 = call signext i8 @uprv_add32_overflow_77(i32 noundef %25, i32 noundef %27, ptr noundef %8)
  %29 = icmp ne i8 %28, 0
  br i1 %29, label %30, label %32

30:                                               ; preds = %24
  %31 = load ptr, ptr %11, align 8, !tbaa !10
  store i32 1, ptr %31, align 4, !tbaa !28
  store i64 0, ptr %6, align 8
  br label %50

32:                                               ; preds = %24
  br label %33

33:                                               ; preds = %32, %21
  call void @llvm.lifetime.start.p0(i64 8, ptr %12) #9
  %34 = load i32, ptr %8, align 4, !tbaa !17
  %35 = sext i32 %34 to i64
  %36 = call noundef i64 @_ZN6icu_77L17firstJulianOfYearEl(i64 noundef %35)
  %37 = add nsw i64 1948319, %36
  store i64 %37, ptr %12, align 8, !tbaa !19
  %38 = load i32, ptr %9, align 4, !tbaa !17
  %39 = icmp ne i32 %38, 0
  br i1 %39, label %40, label %48

40:                                               ; preds = %33
  %41 = load i32, ptr %9, align 4, !tbaa !17
  %42 = sext i32 %41 to i64
  %43 = getelementptr inbounds [12 x i16], ptr @_ZL15kPersianNumDays, i64 0, i64 %42
  %44 = load i16, ptr %43, align 2, !tbaa !30
  %45 = sext i16 %44 to i64
  %46 = load i64, ptr %12, align 8, !tbaa !19
  %47 = add nsw i64 %46, %45
  store i64 %47, ptr %12, align 8, !tbaa !19
  br label %48

48:                                               ; preds = %40, %33
  %49 = load i64, ptr %12, align 8, !tbaa !19
  store i64 %49, ptr %6, align 8
  call void @llvm.lifetime.end.p0(i64 8, ptr %12) #9
  br label %50

50:                                               ; preds = %48, %30, %17
  %51 = load i64, ptr %6, align 8
  ret i64 %51
}