; Function Attrs: mustprogress uwtable
define noundef range(i64 -785977099983, 785980995524) i64 @_ZNK6icu_7715PersianCalendar23handleComputeMonthStartEiiaR10UErrorCode(ptr nonnull readnone align 8 captures(none) %0, i32 noundef %1, i32 noundef %2, i8 signext %3, ptr noundef nonnull align 4 captures(none) dereferenceable(4) %4) unnamed_addr #1 align 2 {
  %6 = alloca i32, align 4
  %7 = alloca i32, align 4
  store i32 %1, ptr %6, align 4, !tbaa !6
  store i32 %2, ptr %7, align 4, !tbaa !6
  %8 = load i32, ptr %4, align 4, !tbaa !15
  %9 = icmp slt i32 %8, 1
  br i1 %9, label %10, label %40

10:                                               ; preds = %5
  %or.cond = icmp ugt i32 %2, 11
  br i1 %or.cond, label %11, label %15

11:                                               ; preds = %10
  %12 = call noundef i32 @_ZN6icu_779ClockMath11floorDivideEiiPi(i32 noundef %2, i32 noundef 12, ptr noundef nonnull %7)
  %13 = call signext i8 @uprv_add32_overflow_77(i32 noundef %1, i32 noundef %12, ptr noundef nonnull %6)
  %.not7 = icmp eq i8 %13, 0
  br i1 %.not7, label %._crit_edge, label %14

._crit_edge:                                      ; preds = %11
  %.pre = load i32, ptr %6, align 4, !tbaa !6
  br label %15

14:                                               ; preds = %11
  store i32 1, ptr %4, align 4, !tbaa !15
  br label %40

15:                                               ; preds = %._crit_edge, %10
  %16 = phi i32 [ %.pre, %._crit_edge ], [ %1, %10 ]
  %17 = sext i32 %16 to i64
  %18 = add nsw i64 %17, -1
  %19 = mul nsw i64 %18, 365
  %20 = shl i32 %16, 3
  %21 = add i32 %20, 21
  %22 = call noundef i32 @_ZN6icu_779ClockMath11floorDivideEii(i32 noundef %21, i32 noundef 33)
  %23 = sext i32 %22 to i64
  %24 = add nsw i64 %19, %23
  %.b = load i1, ptr @_ZN12_GLOBAL__N_114gMinCorrectionE, align 4
  %25 = select i1 %.b, i32 1502, i32 0
  %26 = icmp sgt i32 %16, %25
  br i1 %26, label %27, label %_ZN6icu_77L17firstJulianOfYearEl.exit

27:                                               ; preds = %15
  %28 = call fastcc noundef ptr @_ZN12_GLOBAL__N_117getLeapCorrectionEv()
  %29 = trunc i64 %18 to i32
  %30 = call noundef signext i8 @_ZNK6icu_7710UnicodeSet8containsEi(ptr noundef nonnull align 8 dereferenceable(200) %28, i32 noundef %29)
  %.not.i = icmp ne i8 %30, 0
  %31 = sext i1 %.not.i to i64
  %spec.select.i = add nsw i64 %24, %31
  br label %_ZN6icu_77L17firstJulianOfYearEl.exit

_ZN6icu_77L17firstJulianOfYearEl.exit:            ; preds = %15, %27
  %.0.i = phi i64 [ %24, %15 ], [ %spec.select.i, %27 ]
  %32 = add nsw i64 %.0.i, 1948319
  %33 = load i32, ptr %7, align 4, !tbaa !6
  %.not8 = icmp eq i32 %33, 0
  br i1 %.not8, label %40, label %34

34:                                               ; preds = %_ZN6icu_77L17firstJulianOfYearEl.exit
  %35 = sext i32 %33 to i64
  %36 = getelementptr inbounds [12 x i16], ptr @_ZL15kPersianNumDays, i64 0, i64 %35
  %37 = load i16, ptr %36, align 2, !tbaa !9
  %38 = sext i16 %37 to i64
  %39 = add nsw i64 %32, %38
  br label %40

40:                                               ; preds = %_ZN6icu_77L17firstJulianOfYearEl.exit, %34, %5, %14
  %.05 = phi i64 [ 0, %14 ], [ 0, %5 ], [ %39, %34 ], [ %32, %_ZN6icu_77L17firstJulianOfYearEl.exit ]
  ret i64 %.05
}